target datalayout = "e-m:e-p270:32:32-p271:32:32-p272:64:64-i64:64-i128:128-f80:128-n8:16:32:64-S128"
target triple = "x86_64-pc-linux-gnu"

%"class.net::QuicStreamSequencerBuffer" = type { i64, i64, i64, %"class.std::__cxx11::list", i8, %"class.std::unique_ptr", i64, %"class.std::map" }
%"class.std::__cxx11::list" = type { %"class.std::__cxx11::_List_base" }
%"class.std::__cxx11::_List_base" = type { %"struct.std::__cxx11::_List_base<net::QuicStreamSequencerBuffer::Gap, std::allocator<net::QuicStreamSequencerBuffer::Gap>>::_List_impl" }
%"struct.std::__cxx11::_List_base<net::QuicStreamSequencerBuffer::Gap, std::allocator<net::QuicStreamSequencerBuffer::Gap>>::_List_impl" = type { %"struct.std::__detail::_List_node_header" }
%"struct.std::__detail::_List_node_header" = type { %"struct.std::__detail::_List_node_base", i64 }
%"struct.std::__detail::_List_node_base" = type { ptr, ptr }
%"class.std::unique_ptr" = type { %"struct.std::__uniq_ptr_data" }
%"struct.std::__uniq_ptr_data" = type { %"class.std::__uniq_ptr_impl" }
%"class.std::__uniq_ptr_impl" = type { %"class.std::tuple" }
%"class.std::tuple" = type { %"struct.std::_Tuple_impl" }
%"struct.std::_Tuple_impl" = type { %"struct.std::_Head_base.1" }
%"struct.std::_Head_base.1" = type { ptr }
%"class.std::map" = type { %"class.std::_Rb_tree" }
%"class.std::_Rb_tree" = type { %"struct.std::_Rb_tree<unsigned long, std::pair<const unsigned long, net::QuicStreamSequencerBuffer::FrameInfo>, std::_Select1st<std::pair<const unsigned long, net::QuicStreamSequencerBuffer::FrameInfo>>, std::less<unsigned long>>::_Rb_tree_impl" }
%"struct.std::_Rb_tree<unsigned long, std::pair<const unsigned long, net::QuicStreamSequencerBuffer::FrameInfo>, std::_Select1st<std::pair<const unsigned long, net::QuicStreamSequencerBuffer::FrameInfo>>, std::less<unsigned long>>::_Rb_tree_impl" = type { [8 x i8], %"struct.std::_Rb_tree_header" }
%"struct.std::_Rb_tree_header" = type { %"struct.std::_Rb_tree_node_base", i64 }
%"struct.std::_Rb_tree_node_base" = type { i32, ptr, ptr, ptr }

; Function Attrs: mustprogress nounwind uwtable
define noundef i64 @_ZNK3net25QuicStreamSequencerBuffer16GetBlockCapacityEm(ptr noundef nonnull align 8 dereferenceable(120) %0, i64 noundef %1) #0 align 2 {
  %3 = alloca i64, align 8
  %4 = alloca ptr, align 8
  %5 = alloca i64, align 8
  %6 = alloca i64, align 8
  store ptr %0, ptr %4, align 8, !tbaa !19
  store i64 %1, ptr %5, align 8, !tbaa !8
  %7 = load ptr, ptr %4, align 8
  %8 = load i64, ptr %5, align 8, !tbaa !8
  %9 = add i64 %8, 1
  %10 = getelementptr inbounds nuw %"class.net::QuicStreamSequencerBuffer", ptr %7, i32 0, i32 1
  %11 = load i64, ptr %10, align 8, !tbaa !46
  %12 = icmp eq i64 %9, %11
  br i1 %12, label %13, label %22

13:                                               ; preds = %2
  call void @llvm.lifetime.start.p0(i64 8, ptr %6) #17
  %14 = getelementptr inbounds nuw %"class.net::QuicStreamSequencerBuffer", ptr %7, i32 0, i32 0
  %15 = load i64, ptr %14, align 8, !tbaa !21
  %16 = urem i64 %15, 8192
  store i64 %16, ptr %6, align 8, !tbaa !8
  %17 = load i64, ptr %6, align 8, !tbaa !8
  %18 = icmp eq i64 %17, 0
  br i1 %18, label %19, label %20

19:                                               ; preds = %13
  store i64 8192, ptr %6, align 8, !tbaa !8
  br label %20

20:                                               ; preds = %19, %13
  %21 = load i64, ptr %6, align 8, !tbaa !8
  store i64 %21, ptr %3, align 8
  call void @llvm.lifetime.end.p0(i64 8, ptr %6) #17
  br label %23

22:                                               ; preds = %2
  store i64 8192, ptr %3, align 8
  br label %23

23:                                               ; preds = %22, %20
  %24 = load i64, ptr %3, align 8
  ret i64 %24
}