; Function Attrs: mustprogress nofree norecurse nosync nounwind willreturn memory(argmem: read) uwtable
define noundef range(i64 0, 8193) i64 @_ZNK3net25QuicStreamSequencerBuffer16GetBlockCapacityEm(ptr noundef nonnull readonly align 8 captures(none) dereferenceable(120) %0, i64 noundef %1) local_unnamed_addr #11 align 2 {
  %3 = add i64 %1, 1
  %4 = getelementptr inbounds nuw i8, ptr %0, i64 8
  %5 = load i64, ptr %4, align 8, !tbaa !39
  %6 = icmp eq i64 %3, %5
  %7 = load i64, ptr %0, align 8
  %8 = and i64 %7, 8191
  %9 = icmp eq i64 %8, 0
  %spec.store.select = select i1 %9, i64 8192, i64 %8
  %.0 = select i1 %6, i64 %spec.store.select, i64 8192
  ret i64 %.0
}